<?xml version="1.0" encoding="utf-8"?>
<?xml-stylesheet type="text/xsl" href="pdml2html.xsl"?>
<!-- You can find pdml2html.xsl in C:\Program Files\Wireshark or at https://code.wireshark.org/review/gitweb?p=wireshark.git;a=blob_plain;f=pdml2html.xsl. -->
<pdml version="0" creator="wireshark/2.4.1" time="Mon May 14 22:42:40 2018" capture_file="icmp.pcap">
<packet>
  <proto name="geninfo" pos="0" showname="General information" size="74">
    <field name="num" pos="0" show="1" showname="Number" value="1" size="74"/>
    <field name="len" pos="0" show="74" showname="Frame Length" value="4a" size="74"/>
    <field name="caplen" pos="0" show="74" showname="Captured Length" value="4a" size="74"/>
    <field name="timestamp" pos="0" show="Jun 19, 2013 02:45:56.838904000 Mountain Daylight Time" showname="Captured Time" value="1371631556.838904000" size="74"/>
  </proto>
  <proto name="frame" showname="Frame 1: 74 bytes on wire (592 bits), 74 bytes captured (592 bits)" size="74" pos="0">
    <field name="frame.encap_type" showname="Encapsulation type: Ethernet (1)" size="0" pos="0" show="1"/>
    <field name="frame.time" showname="Arrival Time: Jun 19, 2013 02:45:56.838904000 Mountain Daylight Time" size="0" pos="0" show="Jun 19, 2013 02:45:56.838904000 Mountain Daylight Time"/>
    <field name="frame.offset_shift" showname="Time shift for this packet: 0.000000000 seconds" size="0" pos="0" show="0.000000000"/>
    <field name="frame.time_epoch" showname="Epoch Time: 1371631556.838904000 seconds" size="0" pos="0" show="1371631556.838904000"/>
    <field name="frame.time_delta" showname="Time delta from previous captured frame: 0.000000000 seconds" size="0" pos="0" show="0.000000000"/>
    <field name="frame.time_delta_displayed" showname="Time delta from previous displayed frame: 0.000000000 seconds" size="0" pos="0" show="0.000000000"/>
    <field name="frame.time_relative" showname="Time since reference or first frame: 0.000000000 seconds" size="0" pos="0" show="0.000000000"/>
    <field name="frame.number" showname="Frame Number: 1" size="0" pos="0" show="1"/>
    <field name="frame.len" showname="Frame Length: 74 bytes (592 bits)" size="0" pos="0" show="74"/>
    <field name="frame.cap_len" showname="Capture Length: 74 bytes (592 bits)" size="0" pos="0" show="74"/>
    <field name="frame.marked" showname="Frame is marked: False" size="0" pos="0" show="0"/>
    <field name="frame.ignored" showname="Frame is ignored: False" size="0" pos="0" show="0"/>
    <field name="frame.protocols" showname="Protocols in frame: eth:ethertype:ip:data" size="0" pos="0" show="eth:ethertype:ip:data"/>
  </proto>
  <proto name="eth" showname="Ethernet II, Src: Vmware_34:0b:de (00:0c:29:34:0b:de), Dst: Vmware_e0:14:49 (00:50:56:e0:14:49)" size="14" pos="0">
    <field name="eth.dst" showname="Destination: Vmware_e0:14:49 (00:50:56:e0:14:49)" size="6" pos="0" show="00:50:56:e0:14:49" value="005056e01449">
      <field name="eth.dst_resolved" showname="Destination (resolved): Vmware_e0:14:49" hide="yes" size="6" pos="0" show="Vmware_e0:14:49" value="005056e01449"/>
      <field name="eth.addr" showname="Address: Vmware_e0:14:49 (00:50:56:e0:14:49)" size="6" pos="0" show="00:50:56:e0:14:49" value="005056e01449"/>
      <field name="eth.addr_resolved" showname="Address (resolved): Vmware_e0:14:49" hide="yes" size="6" pos="0" show="Vmware_e0:14:49" value="005056e01449"/>
      <field name="eth.lg" showname=".... ..0. .... .... .... .... = LG bit: Globally unique address (factory default)" size="3" pos="0" show="0" value="0" unmaskedvalue="005056"/>
      <field name="eth.ig" showname=".... ...0 .... .... .... .... = IG bit: Individual address (unicast)" size="3" pos="0" show="0" value="0" unmaskedvalue="005056"/>
    </field>
    <field name="eth.src" showname="Source: Vmware_34:0b:de (00:0c:29:34:0b:de)" size="6" pos="6" show="00:0c:29:34:0b:de" value="000c29340bde">
      <field name="eth.src_resolved" showname="Source (resolved): Vmware_34:0b:de" hide="yes" size="6" pos="6" show="Vmware_34:0b:de" value="000c29340bde"/>
      <field name="eth.addr" showname="Address: Vmware_34:0b:de (00:0c:29:34:0b:de)" size="6" pos="6" show="00:0c:29:34:0b:de" value="000c29340bde"/>
      <field name="eth.addr_resolved" showname="Address (resolved): Vmware_34:0b:de" hide="yes" size="6" pos="6" show="Vmware_34:0b:de" value="000c29340bde"/>
      <field name="eth.lg" showname=".... ..0. .... .... .... .... = LG bit: Globally unique address (factory default)" size="3" pos="6" show="0" value="0" unmaskedvalue="000c29"/>
      <field name="eth.ig" showname=".... ...0 .... .... .... .... = IG bit: Individual address (unicast)" size="3" pos="6" show="0" value="0" unmaskedvalue="000c29"/>
    </field>
    <field name="eth.type" showname="Type: IPv4 (0x0800)" size="2" pos="12" show="0x00000800" value="0800"/>
  </proto>
  <proto name="ip" showname="Internet Protocol Version 4, Src: 192.168.158.139, Dst: 174.137.42.77" size="20" pos="14">
    <field name="ip.version" showname="0100 .... = Version: 4" size="1" pos="14" show="4" value="4" unmaskedvalue="45"/>
    <field name="ip.hdr_len" showname=".... 0101 = Header Length: 20 bytes (5)" size="1" pos="14" show="20" value="45"/>
    <field name="ip.dsfield" showname="Differentiated Services Field: 0x00 (DSCP: CS0, ECN: Not-ECT)" size="1" pos="15" show="0x00000000" value="00">
      <field name="ip.dsfield.dscp" showname="0000 00.. = Differentiated Services Codepoint: Default (0)" size="1" pos="15" show="0" value="0" unmaskedvalue="00"/>
      <field name="ip.dsfield.ecn" showname=".... ..00 = Explicit Congestion Notification: Not ECN-Capable Transport (0)" size="1" pos="15" show="0" value="0" unmaskedvalue="00"/>
    </field>
    <field name="ip.len" showname="Total Length: 60" size="2" pos="16" show="60" value="003c"/>
    <field name="ip.id" showname="Identification: 0xd743 (55107)" size="2" pos="18" show="0x0000d743" value="d743"/>
    <field name="ip.flags" showname="Flags: 0x00" size="1" pos="20" show="0x00000000" value="00">
      <field name="ip.flags.rb" showname="0... .... = Reserved bit: Not set" size="1" pos="20" show="0" value="00"/>
      <field name="ip.flags.df" showname=".0.. .... = Don&#x27;t fragment: Not set" size="1" pos="20" show="0" value="00"/>
      <field name="ip.flags.mf" showname="..0. .... = More fragments: Not set" size="1" pos="20" show="0" value="00"/>
    </field>
    <field name="ip.frag_offset" showname="Fragment offset: 0" size="2" pos="20" show="0" value="0000"/>
    <field name="ip.ttl" showname="Time to live: 128" size="1" pos="22" show="128" value="80"/>
    <field name="ip.proto" showname="Protocol: ICMP (1)" size="1" pos="23" show="1" value="01"/>
    <field name="ip.checksum" showname="Header checksum: 0x2b73 [validation disabled]" size="2" pos="24" show="0x00002b73" value="2b73"/>
    <field name="ip.checksum.status" showname="Header checksum status: Unverified" size="0" pos="24" show="2"/>
    <field name="ip.src" showname="Source: 192.168.158.139" size="4" pos="26" show="192.168.158.139" value="c0a89e8b"/>
    <field name="ip.addr" showname="Source or Destination Address: 192.168.158.139" hide="yes" size="4" pos="26" show="192.168.158.139" value="c0a89e8b"/>
    <field name="ip.src_host" showname="Source Host: 192.168.158.139" hide="yes" size="4" pos="26" show="192.168.158.139" value="c0a89e8b"/>
    <field name="ip.host" showname="Source or Destination Host: 192.168.158.139" hide="yes" size="4" pos="26" show="192.168.158.139" value="c0a89e8b"/>
    <field name="ip.dst" showname="Destination: 174.137.42.77" size="4" pos="30" show="174.137.42.77" value="ae892a4d"/>
    <field name="ip.addr" showname="Source or Destination Address: 174.137.42.77" hide="yes" size="4" pos="30" show="174.137.42.77" value="ae892a4d"/>
    <field name="ip.dst_host" showname="Destination Host: 174.137.42.77" hide="yes" size="4" pos="30" show="174.137.42.77" value="ae892a4d"/>
    <field name="ip.host" showname="Source or Destination Host: 174.137.42.77" hide="yes" size="4" pos="30" show="174.137.42.77" value="ae892a4d"/>
    <field name="" show="Source GeoIP: Unknown" size="4" pos="26" value="c0a89e8b"/>
    <field name="" show="Destination GeoIP: Unknown" size="4" pos="30" value="ae892a4d"/>
  </proto>
  <proto name="fake-field-wrapper">
  <field name="data" value="08002a5c020021006162636465666768696a6b6c6d6e6f7071727374757677616263646566676869">
    <field name="data.data" showname="Data: 08002a5c020021006162636465666768696a6b6c6d6e6f70..." size="40" pos="34" show="08:00:2a:5c:02:00:21:00:61:62:63:64:65:66:67:68:69:6a:6b:6c:6d:6e:6f:70:71:72:73:74:75:76:77:61:62:63:64:65:66:67:68:69" value="08002a5c020021006162636465666768696a6b6c6d6e6f7071727374757677616263646566676869"/>
    <field name="data.len" showname="Length: 40" size="0" pos="34" show="40"/>
</field>
</proto>
</packet>


<packet>
  <proto name="geninfo" pos="0" showname="General information" size="74">
    <field name="num" pos="0" show="2" showname="Number" value="2" size="74"/>
    <field name="len" pos="0" show="74" showname="Frame Length" value="4a" size="74"/>
    <field name="caplen" pos="0" show="74" showname="Captured Length" value="4a" size="74"/>
    <field name="timestamp" pos="0" show="Jun 19, 2013 02:45:57.055699000 Mountain Daylight Time" showname="Captured Time" value="1371631557.055699000" size="74"/>
  </proto>
  <proto name="frame" showname="Frame 2: 74 bytes on wire (592 bits), 74 bytes captured (592 bits)" size="74" pos="0">
    <field name="frame.encap_type" showname="Encapsulation type: Ethernet (1)" size="0" pos="0" show="1"/>
    <field name="frame.time" showname="Arrival Time: Jun 19, 2013 02:45:57.055699000 Mountain Daylight Time" size="0" pos="0" show="Jun 19, 2013 02:45:57.055699000 Mountain Daylight Time"/>
    <field name="frame.offset_shift" showname="Time shift for this packet: 0.000000000 seconds" size="0" pos="0" show="0.000000000"/>
    <field name="frame.time_epoch" showname="Epoch Time: 1371631557.055699000 seconds" size="0" pos="0" show="1371631557.055699000"/>
    <field name="frame.time_delta" showname="Time delta from previous captured frame: 0.216795000 seconds" size="0" pos="0" show="0.216795000"/>
    <field name="frame.time_delta_displayed" showname="Time delta from previous displayed frame: 0.216795000 seconds" size="0" pos="0" show="0.216795000"/>
    <field name="frame.time_relative" showname="Time since reference or first frame: 0.216795000 seconds" size="0" pos="0" show="0.216795000"/>
    <field name="frame.number" showname="Frame Number: 2" size="0" pos="0" show="2"/>
    <field name="frame.len" showname="Frame Length: 74 bytes (592 bits)" size="0" pos="0" show="74"/>
    <field name="frame.cap_len" showname="Capture Length: 74 bytes (592 bits)" size="0" pos="0" show="74"/>
    <field name="frame.marked" showname="Frame is marked: False" size="0" pos="0" show="0"/>
    <field name="frame.ignored" showname="Frame is ignored: False" size="0" pos="0" show="0"/>
    <field name="frame.protocols" showname="Protocols in frame: eth:ethertype:ip:data" size="0" pos="0" show="eth:ethertype:ip:data"/>
  </proto>
  <proto name="eth" showname="Ethernet II, Src: Vmware_e0:14:49 (00:50:56:e0:14:49), Dst: Vmware_34:0b:de (00:0c:29:34:0b:de)" size="14" pos="0">
    <field name="eth.dst" showname="Destination: Vmware_34:0b:de (00:0c:29:34:0b:de)" size="6" pos="0" show="00:0c:29:34:0b:de" value="000c29340bde">
      <field name="eth.dst_resolved" showname="Destination (resolved): Vmware_34:0b:de" hide="yes" size="6" pos="0" show="Vmware_34:0b:de" value="000c29340bde"/>
      <field name="eth.addr" showname="Address: Vmware_34:0b:de (00:0c:29:34:0b:de)" size="6" pos="0" show="00:0c:29:34:0b:de" value="000c29340bde"/>
      <field name="eth.addr_resolved" showname="Address (resolved): Vmware_34:0b:de" hide="yes" size="6" pos="0" show="Vmware_34:0b:de" value="000c29340bde"/>
      <field name="eth.lg" showname=".... ..0. .... .... .... .... = LG bit: Globally unique address (factory default)" size="3" pos="0" show="0" value="0" unmaskedvalue="000c29"/>
      <field name="eth.ig" showname=".... ...0 .... .... .... .... = IG bit: Individual address (unicast)" size="3" pos="0" show="0" value="0" unmaskedvalue="000c29"/>
    </field>
    <field name="eth.src" showname="Source: Vmware_e0:14:49 (00:50:56:e0:14:49)" size="6" pos="6" show="00:50:56:e0:14:49" value="005056e01449">
      <field name="eth.src_resolved" showname="Source (resolved): Vmware_e0:14:49" hide="yes" size="6" pos="6" show="Vmware_e0:14:49" value="005056e01449"/>
      <field name="eth.addr" showname="Address: Vmware_e0:14:49 (00:50:56:e0:14:49)" size="6" pos="6" show="00:50:56:e0:14:49" value="005056e01449"/>
      <field name="eth.addr_resolved" showname="Address (resolved): Vmware_e0:14:49" hide="yes" size="6" pos="6" show="Vmware_e0:14:49" value="005056e01449"/>
      <field name="eth.lg" showname=".... ..0. .... .... .... .... = LG bit: Globally unique address (factory default)" size="3" pos="6" show="0" value="0" unmaskedvalue="005056"/>
      <field name="eth.ig" showname=".... ...0 .... .... .... .... = IG bit: Individual address (unicast)" size="3" pos="6" show="0" value="0" unmaskedvalue="005056"/>
    </field>
    <field name="eth.type" showname="Type: IPv4 (0x0800)" size="2" pos="12" show="0x00000800" value="0800"/>
  </proto>
  <proto name="ip" showname="Internet Protocol Version 4, Src: 174.137.42.77, Dst: 192.168.158.139" size="20" pos="14">
    <field name="ip.version" showname="0100 .... = Version: 4" size="1" pos="14" show="4" value="4" unmaskedvalue="45"/>
    <field name="ip.hdr_len" showname=".... 0101 = Header Length: 20 bytes (5)" size="1" pos="14" show="20" value="45"/>
    <field name="ip.dsfield" showname="Differentiated Services Field: 0x00 (DSCP: CS0, ECN: Not-ECT)" size="1" pos="15" show="0x00000000" value="00">
      <field name="ip.dsfield.dscp" showname="0000 00.. = Differentiated Services Codepoint: Default (0)" size="1" pos="15" show="0" value="0" unmaskedvalue="00"/>
      <field name="ip.dsfield.ecn" showname=".... ..00 = Explicit Congestion Notification: Not ECN-Capable Transport (0)" size="1" pos="15" show="0" value="0" unmaskedvalue="00"/>
    </field>
    <field name="ip.len" showname="Total Length: 60" size="2" pos="16" show="60" value="003c"/>
    <field name="ip.id" showname="Identification: 0x76e1 (30433)" size="2" pos="18" show="0x000076e1" value="76e1"/>
    <field name="ip.flags" showname="Flags: 0x00" size="1" pos="20" show="0x00000000" value="00">
      <field name="ip.flags.rb" showname="0... .... = Reserved bit: Not set" size="1" pos="20" show="0" value="00"/>
      <field name="ip.flags.df" showname=".0.. .... = Don&#x27;t fragment: Not set" size="1" pos="20" show="0" value="00"/>
      <field name="ip.flags.mf" showname="..0. .... = More fragments: Not set" size="1" pos="20" show="0" value="00"/>
    </field>
    <field name="ip.frag_offset" showname="Fragment offset: 0" size="2" pos="20" show="0" value="0000"/>
    <field name="ip.ttl" showname="Time to live: 128" size="1" pos="22" show="128" value="80"/>
    <field name="ip.proto" showname="Protocol: ICMP (1)" size="1" pos="23" show="1" value="01"/>
    <field name="ip.checksum" showname="Header checksum: 0x8bd5 [validation disabled]" size="2" pos="24" show="0x00008bd5" value="8bd5"/>
    <field name="ip.checksum.status" showname="Header checksum status: Unverified" size="0" pos="24" show="2"/>
    <field name="ip.src" showname="Source: 174.137.42.77" size="4" pos="26" show="174.137.42.77" value="ae892a4d"/>
    <field name="ip.addr" showname="Source or Destination Address: 174.137.42.77" hide="yes" size="4" pos="26" show="174.137.42.77" value="ae892a4d"/>
    <field name="ip.src_host" showname="Source Host: 174.137.42.77" hide="yes" size="4" pos="26" show="174.137.42.77" value="ae892a4d"/>
    <field name="ip.host" showname="Source or Destination Host: 174.137.42.77" hide="yes" size="4" pos="26" show="174.137.42.77" value="ae892a4d"/>
    <field name="ip.dst" showname="Destination: 192.168.158.139" size="4" pos="30" show="192.168.158.139" value="c0a89e8b"/>
    <field name="ip.addr" showname="Source or Destination Address: 192.168.158.139" hide="yes" size="4" pos="30" show="192.168.158.139" value="c0a89e8b"/>
    <field name="ip.dst_host" showname="Destination Host: 192.168.158.139" hide="yes" size="4" pos="30" show="192.168.158.139" value="c0a89e8b"/>
    <field name="ip.host" showname="Source or Destination Host: 192.168.158.139" hide="yes" size="4" pos="30" show="192.168.158.139" value="c0a89e8b"/>
    <field name="" show="Source GeoIP: Unknown" size="4" pos="26" value="ae892a4d"/>
    <field name="" show="Destination GeoIP: Unknown" size="4" pos="30" value="c0a89e8b"/>
  </proto>
  <proto name="fake-field-wrapper">
  <field name="data" value="0000325c020021006162636465666768696a6b6c6d6e6f7071727374757677616263646566676869">
    <field name="data.data" showname="Data: 0000325c020021006162636465666768696a6b6c6d6e6f70..." size="40" pos="34" show="00:00:32:5c:02:00:21:00:61:62:63:64:65:66:67:68:69:6a:6b:6c:6d:6e:6f:70:71:72:73:74:75:76:77:61:62:63:64:65:66:67:68:69" value="0000325c020021006162636465666768696a6b6c6d6e6f7071727374757677616263646566676869"/>
    <field name="data.len" showname="Length: 40" size="0" pos="34" show="40"/>
</field>
</proto>
</packet>


<packet>
  <proto name="geninfo" pos="0" showname="General information" size="74">
    <field name="num" pos="0" show="3" showname="Number" value="3" size="74"/>
    <field name="len" pos="0" show="74" showname="Frame Length" value="4a" size="74"/>
    <field name="caplen" pos="0" show="74" showname="Captured Length" value="4a" size="74"/>
    <field name="timestamp" pos="0" show="Jun 19, 2013 02:45:57.840049000 Mountain Daylight Time" showname="Captured Time" value="1371631557.840049000" size="74"/>
  </proto>
  <proto name="frame" showname="Frame 3: 74 bytes on wire (592 bits), 74 bytes captured (592 bits)" size="74" pos="0">
    <field name="frame.encap_type" showname="Encapsulation type: Ethernet (1)" size="0" pos="0" show="1"/>
    <field name="frame.time" showname="Arrival Time: Jun 19, 2013 02:45:57.840049000 Mountain Daylight Time" size="0" pos="0" show="Jun 19, 2013 02:45:57.840049000 Mountain Daylight Time"/>
    <field name="frame.offset_shift" showname="Time shift for this packet: 0.000000000 seconds" size="0" pos="0" show="0.000000000"/>
    <field name="frame.time_epoch" showname="Epoch Time: 1371631557.840049000 seconds" size="0" pos="0" show="1371631557.840049000"/>
    <field name="frame.time_delta" showname="Time delta from previous captured frame: 0.784350000 seconds" size="0" pos="0" show="0.784350000"/>
    <field name="frame.time_delta_displayed" showname="Time delta from previous displayed frame: 0.784350000 seconds" size="0" pos="0" show="0.784350000"/>
    <field name="frame.time_relative" showname="Time since reference or first frame: 1.001145000 seconds" size="0" pos="0" show="1.001145000"/>
    <field name="frame.number" showname="Frame Number: 3" size="0" pos="0" show="3"/>
    <field name="frame.len" showname="Frame Length: 74 bytes (592 bits)" size="0" pos="0" show="74"/>
    <field name="frame.cap_len" showname="Capture Length: 74 bytes (592 bits)" size="0" pos="0" show="74"/>
    <field name="frame.marked" showname="Frame is marked: False" size="0" pos="0" show="0"/>
    <field name="frame.ignored" showname="Frame is ignored: False" size="0" pos="0" show="0"/>
    <field name="frame.protocols" showname="Protocols in frame: eth:ethertype:ip:data" size="0" pos="0" show="eth:ethertype:ip:data"/>
  </proto>
  <proto name="eth" showname="Ethernet II, Src: Vmware_34:0b:de (00:0c:29:34:0b:de), Dst: Vmware_e0:14:49 (00:50:56:e0:14:49)" size="14" pos="0">
    <field name="eth.dst" showname="Destination: Vmware_e0:14:49 (00:50:56:e0:14:49)" size="6" pos="0" show="00:50:56:e0:14:49" value="005056e01449">
      <field name="eth.dst_resolved" showname="Destination (resolved): Vmware_e0:14:49" hide="yes" size="6" pos="0" show="Vmware_e0:14:49" value="005056e01449"/>
      <field name="eth.addr" showname="Address: Vmware_e0:14:49 (00:50:56:e0:14:49)" size="6" pos="0" show="00:50:56:e0:14:49" value="005056e01449"/>
      <field name="eth.addr_resolved" showname="Address (resolved): Vmware_e0:14:49" hide="yes" size="6" pos="0" show="Vmware_e0:14:49" value="005056e01449"/>
      <field name="eth.lg" showname=".... ..0. .... .... .... .... = LG bit: Globally unique address (factory default)" size="3" pos="0" show="0" value="0" unmaskedvalue="005056"/>
      <field name="eth.ig" showname=".... ...0 .... .... .... .... = IG bit: Individual address (unicast)" size="3" pos="0" show="0" value="0" unmaskedvalue="005056"/>
    </field>
    <field name="eth.src" showname="Source: Vmware_34:0b:de (00:0c:29:34:0b:de)" size="6" pos="6" show="00:0c:29:34:0b:de" value="000c29340bde">
      <field name="eth.src_resolved" showname="Source (resolved): Vmware_34:0b:de" hide="yes" size="6" pos="6" show="Vmware_34:0b:de" value="000c29340bde"/>
      <field name="eth.addr" showname="Address: Vmware_34:0b:de (00:0c:29:34:0b:de)" size="6" pos="6" show="00:0c:29:34:0b:de" value="000c29340bde"/>
      <field name="eth.addr_resolved" showname="Address (resolved): Vmware_34:0b:de" hide="yes" size="6" pos="6" show="Vmware_34:0b:de" value="000c29340bde"/>
      <field name="eth.lg" showname=".... ..0. .... .... .... .... = LG bit: Globally unique address (factory default)" size="3" pos="6" show="0" value="0" unmaskedvalue="000c29"/>
      <field name="eth.ig" showname=".... ...0 .... .... .... .... = IG bit: Individual address (unicast)" size="3" pos="6" show="0" value="0" unmaskedvalue="000c29"/>
    </field>
    <field name="eth.type" showname="Type: IPv4 (0x0800)" size="2" pos="12" show="0x00000800" value="0800"/>
  </proto>
  <proto name="ip" showname="Internet Protocol Version 4, Src: 192.168.158.139, Dst: 174.137.42.77" size="20" pos="14">
    <field name="ip.version" showname="0100 .... = Version: 4" size="1" pos="14" show="4" value="4" unmaskedvalue="45"/>
    <field name="ip.hdr_len" showname=".... 0101 = Header Length: 20 bytes (5)" size="1" pos="14" show="20" value="45"/>
    <field name="ip.dsfield" showname="Differentiated Services Field: 0x00 (DSCP: CS0, ECN: Not-ECT)" size="1" pos="15" show="0x00000000" value="00">
      <field name="ip.dsfield.dscp" showname="0000 00.. = Differentiated Services Codepoint: Default (0)" size="1" pos="15" show="0" value="0" unmaskedvalue="00"/>
      <field name="ip.dsfield.ecn" showname=".... ..00 = Explicit Congestion Notification: Not ECN-Capable Transport (0)" size="1" pos="15" show="0" value="0" unmaskedvalue="00"/>
    </field>
    <field name="ip.len" showname="Total Length: 60" size="2" pos="16" show="60" value="003c"/>
    <field name="ip.id" showname="Identification: 0xd746 (55110)" size="2" pos="18" show="0x0000d746" value="d746"/>
    <field name="ip.flags" showname="Flags: 0x00" size="1" pos="20" show="0x00000000" value="00">
      <field name="ip.flags.rb" showname="0... .... = Reserved bit: Not set" size="1" pos="20" show="0" value="00"/>
      <field name="ip.flags.df" showname=".0.. .... = Don&#x27;t fragment: Not set" size="1" pos="20" show="0" value="00"/>
      <field name="ip.flags.mf" showname="..0. .... = More fragments: Not set" size="1" pos="20" show="0" value="00"/>
    </field>
    <field name="ip.frag_offset" showname="Fragment offset: 0" size="2" pos="20" show="0" value="0000"/>
    <field name="ip.ttl" showname="Time to live: 128" size="1" pos="22" show="128" value="80"/>
    <field name="ip.proto" showname="Protocol: ICMP (1)" size="1" pos="23" show="1" value="01"/>
    <field name="ip.checksum" showname="Header checksum: 0x2b70 [validation disabled]" size="2" pos="24" show="0x00002b70" value="2b70"/>
    <field name="ip.checksum.status" showname="Header checksum status: Unverified" size="0" pos="24" show="2"/>
    <field name="ip.src" showname="Source: 192.168.158.139" size="4" pos="26" show="192.168.158.139" value="c0a89e8b"/>
    <field name="ip.addr" showname="Source or Destination Address: 192.168.158.139" hide="yes" size="4" pos="26" show="192.168.158.139" value="c0a89e8b"/>
    <field name="ip.src_host" showname="Source Host: 192.168.158.139" hide="yes" size="4" pos="26" show="192.168.158.139" value="c0a89e8b"/>
    <field name="ip.host" showname="Source or Destination Host: 192.168.158.139" hide="yes" size="4" pos="26" show="192.168.158.139" value="c0a89e8b"/>
    <field name="ip.dst" showname="Destination: 174.137.42.77" size="4" pos="30" show="174.137.42.77" value="ae892a4d"/>
    <field name="ip.addr" showname="Source or Destination Address: 174.137.42.77" hide="yes" size="4" pos="30" show="174.137.42.77" value="ae892a4d"/>
    <field name="ip.dst_host" showname="Destination Host: 174.137.42.77" hide="yes" size="4" pos="30" show="174.137.42.77" value="ae892a4d"/>
    <field name="ip.host" showname="Source or Destination Host: 174.137.42.77" hide="yes" size="4" pos="30" show="174.137.42.77" value="ae892a4d"/>
    <field name="" show="Source GeoIP: Unknown" size="4" pos="26" value="c0a89e8b"/>
    <field name="" show="Destination GeoIP: Unknown" size="4" pos="30" value="ae892a4d"/>
  </proto>
  <proto name="fake-field-wrapper">
  <field name="data" value="0800295c020022006162636465666768696a6b6c6d6e6f7071727374757677616263646566676869">
    <field name="data.data" showname="Data: 0800295c020022006162636465666768696a6b6c6d6e6f70..." size="40" pos="34" show="08:00:29:5c:02:00:22:00:61:62:63:64:65:66:67:68:69:6a:6b:6c:6d:6e:6f:70:71:72:73:74:75:76:77:61:62:63:64:65:66:67:68:69" value="0800295c020022006162636465666768696a6b6c6d6e6f7071727374757677616263646566676869"/>
    <field name="data.len" showname="Length: 40" size="0" pos="34" show="40"/>
</field>
</proto>
</packet>


<packet>
  <proto name="geninfo" pos="0" showname="General information" size="74">
    <field name="num" pos="0" show="4" showname="Number" value="4" size="74"/>
    <field name="len" pos="0" show="74" showname="Frame Length" value="4a" size="74"/>
    <field name="caplen" pos="0" show="74" showname="Captured Length" value="4a" size="74"/>
    <field name="timestamp" pos="0" show="Jun 19, 2013 02:45:58.044196000 Mountain Daylight Time" showname="Captured Time" value="1371631558.044196000" size="74"/>
  </proto>
  <proto name="frame" showname="Frame 4: 74 bytes on wire (592 bits), 74 bytes captured (592 bits)" size="74" pos="0">
    <field name="frame.encap_type" showname="Encapsulation type: Ethernet (1)" size="0" pos="0" show="1"/>
    <field name="frame.time" showname="Arrival Time: Jun 19, 2013 02:45:58.044196000 Mountain Daylight Time" size="0" pos="0" show="Jun 19, 2013 02:45:58.044196000 Mountain Daylight Time"/>
    <field name="frame.offset_shift" showname="Time shift for this packet: 0.000000000 seconds" size="0" pos="0" show="0.000000000"/>
    <field name="frame.time_epoch" showname="Epoch Time: 1371631558.044196000 seconds" size="0" pos="0" show="1371631558.044196000"/>
    <field name="frame.time_delta" showname="Time delta from previous captured frame: 0.204147000 seconds" size="0" pos="0" show="0.204147000"/>
    <field name="frame.time_delta_displayed" showname="Time delta from previous displayed frame: 0.204147000 seconds" size="0" pos="0" show="0.204147000"/>
    <field name="frame.time_relative" showname="Time since reference or first frame: 1.205292000 seconds" size="0" pos="0" show="1.205292000"/>
    <field name="frame.number" showname="Frame Number: 4" size="0" pos="0" show="4"/>
    <field name="frame.len" showname="Frame Length: 74 bytes (592 bits)" size="0" pos="0" show="74"/>
    <field name="frame.cap_len" showname="Capture Length: 74 bytes (592 bits)" size="0" pos="0" show="74"/>
    <field name="frame.marked" showname="Frame is marked: False" size="0" pos="0" show="0"/>
    <field name="frame.ignored" showname="Frame is ignored: False" size="0" pos="0" show="0"/>
    <field name="frame.protocols" showname="Protocols in frame: eth:ethertype:ip:data" size="0" pos="0" show="eth:ethertype:ip:data"/>
  </proto>
  <proto name="eth" showname="Ethernet II, Src: Vmware_e0:14:49 (00:50:56:e0:14:49), Dst: Vmware_34:0b:de (00:0c:29:34:0b:de)" size="14" pos="0">
    <field name="eth.dst" showname="Destination: Vmware_34:0b:de (00:0c:29:34:0b:de)" size="6" pos="0" show="00:0c:29:34:0b:de" value="000c29340bde">
      <field name="eth.dst_resolved" showname="Destination (resolved): Vmware_34:0b:de" hide="yes" size="6" pos="0" show="Vmware_34:0b:de" value="000c29340bde"/>
      <field name="eth.addr" showname="Address: Vmware_34:0b:de (00:0c:29:34:0b:de)" size="6" pos="0" show="00:0c:29:34:0b:de" value="000c29340bde"/>
      <field name="eth.addr_resolved" showname="Address (resolved): Vmware_34:0b:de" hide="yes" size="6" pos="0" show="Vmware_34:0b:de" value="000c29340bde"/>
      <field name="eth.lg" showname=".... ..0. .... .... .... .... = LG bit: Globally unique address (factory default)" size="3" pos="0" show="0" value="0" unmaskedvalue="000c29"/>
      <field name="eth.ig" showname=".... ...0 .... .... .... .... = IG bit: Individual address (unicast)" size="3" pos="0" show="0" value="0" unmaskedvalue="000c29"/>
    </field>
    <field name="eth.src" showname="Source: Vmware_e0:14:49 (00:50:56:e0:14:49)" size="6" pos="6" show="00:50:56:e0:14:49" value="005056e01449">
      <field name="eth.src_resolved" showname="Source (resolved): Vmware_e0:14:49" hide="yes" size="6" pos="6" show="Vmware_e0:14:49" value="005056e01449"/>
      <field name="eth.addr" showname="Address: Vmware_e0:14:49 (00:50:56:e0:14:49)" size="6" pos="6" show="00:50:56:e0:14:49" value="005056e01449"/>
      <field name="eth.addr_resolved" showname="Address (resolved): Vmware_e0:14:49" hide="yes" size="6" pos="6" show="Vmware_e0:14:49" value="005056e01449"/>
      <field name="eth.lg" showname=".... ..0. .... .... .... .... = LG bit: Globally unique address (factory default)" size="3" pos="6" show="0" value="0" unmaskedvalue="005056"/>
      <field name="eth.ig" showname=".... ...0 .... .... .... .... = IG bit: Individual address (unicast)" size="3" pos="6" show="0" value="0" unmaskedvalue="005056"/>
    </field>
    <field name="eth.type" showname="Type: IPv4 (0x0800)" size="2" pos="12" show="0x00000800" value="0800"/>
  </proto>
  <proto name="ip" showname="Internet Protocol Version 4, Src: 174.137.42.77, Dst: 192.168.158.139" size="20" pos="14">
    <field name="ip.version" showname="0100 .... = Version: 4" size="1" pos="14" show="4" value="4" unmaskedvalue="45"/>
    <field name="ip.hdr_len" showname=".... 0101 = Header Length: 20 bytes (5)" size="1" pos="14" show="20" value="45"/>
    <field name="ip.dsfield" showname="Differentiated Services Field: 0x00 (DSCP: CS0, ECN: Not-ECT)" size="1" pos="15" show="0x00000000" value="00">
      <field name="ip.dsfield.dscp" showname="0000 00.. = Differentiated Services Codepoint: Default (0)" size="1" pos="15" show="0" value="0" unmaskedvalue="00"/>
      <field name="ip.dsfield.ecn" showname=".... ..00 = Explicit Congestion Notification: Not ECN-Capable Transport (0)" size="1" pos="15" show="0" value="0" unmaskedvalue="00"/>
    </field>
    <field name="ip.len" showname="Total Length: 60" size="2" pos="16" show="60" value="003c"/>
    <field name="ip.id" showname="Identification: 0x76e4 (30436)" size="2" pos="18" show="0x000076e4" value="76e4"/>
    <field name="ip.flags" showname="Flags: 0x00" size="1" pos="20" show="0x00000000" value="00">
      <field name="ip.flags.rb" showname="0... .... = Reserved bit: Not set" size="1" pos="20" show="0" value="00"/>
      <field name="ip.flags.df" showname=".0.. .... = Don&#x27;t fragment: Not set" size="1" pos="20" show="0" value="00"/>
      <field name="ip.flags.mf" showname="..0. .... = More fragments: Not set" size="1" pos="20" show="0" value="00"/>
    </field>
    <field name="ip.frag_offset" showname="Fragment offset: 0" size="2" pos="20" show="0" value="0000"/>
    <field name="ip.ttl" showname="Time to live: 128" size="1" pos="22" show="128" value="80"/>
    <field name="ip.proto" showname="Protocol: ICMP (1)" size="1" pos="23" show="1" value="01"/>
    <field name="ip.checksum" showname="Header checksum: 0x8bd2 [validation disabled]" size="2" pos="24" show="0x00008bd2" value="8bd2"/>
    <field name="ip.checksum.status" showname="Header checksum status: Unverified" size="0" pos="24" show="2"/>
    <field name="ip.src" showname="Source: 174.137.42.77" size="4" pos="26" show="174.137.42.77" value="ae892a4d"/>
    <field name="ip.addr" showname="Source or Destination Address: 174.137.42.77" hide="yes" size="4" pos="26" show="174.137.42.77" value="ae892a4d"/>
    <field name="ip.src_host" showname="Source Host: 174.137.42.77" hide="yes" size="4" pos="26" show="174.137.42.77" value="ae892a4d"/>
    <field name="ip.host" showname="Source or Destination Host: 174.137.42.77" hide="yes" size="4" pos="26" show="174.137.42.77" value="ae892a4d"/>
    <field name="ip.dst" showname="Destination: 192.168.158.139" size="4" pos="30" show="192.168.158.139" value="c0a89e8b"/>
    <field name="ip.addr" showname="Source or Destination Address: 192.168.158.139" hide="yes" size="4" pos="30" show="192.168.158.139" value="c0a89e8b"/>
    <field name="ip.dst_host" showname="Destination Host: 192.168.158.139" hide="yes" size="4" pos="30" show="192.168.158.139" value="c0a89e8b"/>
    <field name="ip.host" showname="Source or Destination Host: 192.168.158.139" hide="yes" size="4" pos="30" show="192.168.158.139" value="c0a89e8b"/>
    <field name="" show="Source GeoIP: Unknown" size="4" pos="26" value="ae892a4d"/>
    <field name="" show="Destination GeoIP: Unknown" size="4" pos="30" value="c0a89e8b"/>
  </proto>
  <proto name="fake-field-wrapper">
  <field name="data" value="0000315c020022006162636465666768696a6b6c6d6e6f7071727374757677616263646566676869">
    <field name="data.data" showname="Data: 0000315c020022006162636465666768696a6b6c6d6e6f70..." size="40" pos="34" show="00:00:31:5c:02:00:22:00:61:62:63:64:65:66:67:68:69:6a:6b:6c:6d:6e:6f:70:71:72:73:74:75:76:77:61:62:63:64:65:66:67:68:69" value="0000315c020022006162636465666768696a6b6c6d6e6f7071727374757677616263646566676869"/>
    <field name="data.len" showname="Length: 40" size="0" pos="34" show="40"/>
</field>
</proto>
</packet>


<packet>
  <proto name="geninfo" pos="0" showname="General information" size="74">
    <field name="num" pos="0" show="5" showname="Number" value="5" size="74"/>
    <field name="len" pos="0" show="74" showname="Frame Length" value="4a" size="74"/>
    <field name="caplen" pos="0" show="74" showname="Captured Length" value="4a" size="74"/>
    <field name="timestamp" pos="0" show="Jun 19, 2013 02:45:58.841168000 Mountain Daylight Time" showname="Captured Time" value="1371631558.841168000" size="74"/>
  </proto>
  <proto name="frame" showname="Frame 5: 74 bytes on wire (592 bits), 74 bytes captured (592 bits)" size="74" pos="0">
    <field name="frame.encap_type" showname="Encapsulation type: Ethernet (1)" size="0" pos="0" show="1"/>
    <field name="frame.time" showname="Arrival Time: Jun 19, 2013 02:45:58.841168000 Mountain Daylight Time" size="0" pos="0" show="Jun 19, 2013 02:45:58.841168000 Mountain Daylight Time"/>
    <field name="frame.offset_shift" showname="Time shift for this packet: 0.000000000 seconds" size="0" pos="0" show="0.000000000"/>
    <field name="frame.time_epoch" showname="Epoch Time: 1371631558.841168000 seconds" size="0" pos="0" show="1371631558.841168000"/>
    <field name="frame.time_delta" showname="Time delta from previous captured frame: 0.796972000 seconds" size="0" pos="0" show="0.796972000"/>
    <field name="frame.time_delta_displayed" showname="Time delta from previous displayed frame: 0.796972000 seconds" size="0" pos="0" show="0.796972000"/>
    <field name="frame.time_relative" showname="Time since reference or first frame: 2.002264000 seconds" size="0" pos="0" show="2.002264000"/>
    <field name="frame.number" showname="Frame Number: 5" size="0" pos="0" show="5"/>
    <field name="frame.len" showname="Frame Length: 74 bytes (592 bits)" size="0" pos="0" show="74"/>
    <field name="frame.cap_len" showname="Capture Length: 74 bytes (592 bits)" size="0" pos="0" show="74"/>
    <field name="frame.marked" showname="Frame is marked: False" size="0" pos="0" show="0"/>
    <field name="frame.ignored" showname="Frame is ignored: False" size="0" pos="0" show="0"/>
    <field name="frame.protocols" showname="Protocols in frame: eth:ethertype:ip:data" size="0" pos="0" show="eth:ethertype:ip:data"/>
  </proto>
  <proto name="eth" showname="Ethernet II, Src: Vmware_34:0b:de (00:0c:29:34:0b:de), Dst: Vmware_e0:14:49 (00:50:56:e0:14:49)" size="14" pos="0">
    <field name="eth.dst" showname="Destination: Vmware_e0:14:49 (00:50:56:e0:14:49)" size="6" pos="0" show="00:50:56:e0:14:49" value="005056e01449">
      <field name="eth.dst_resolved" showname="Destination (resolved): Vmware_e0:14:49" hide="yes" size="6" pos="0" show="Vmware_e0:14:49" value="005056e01449"/>
      <field name="eth.addr" showname="Address: Vmware_e0:14:49 (00:50:56:e0:14:49)" size="6" pos="0" show="00:50:56:e0:14:49" value="005056e01449"/>
      <field name="eth.addr_resolved" showname="Address (resolved): Vmware_e0:14:49" hide="yes" size="6" pos="0" show="Vmware_e0:14:49" value="005056e01449"/>
      <field name="eth.lg" showname=".... ..0. .... .... .... .... = LG bit: Globally unique address (factory default)" size="3" pos="0" show="0" value="0" unmaskedvalue="005056"/>
      <field name="eth.ig" showname=".... ...0 .... .... .... .... = IG bit: Individual address (unicast)" size="3" pos="0" show="0" value="0" unmaskedvalue="005056"/>
    </field>
    <field name="eth.src" showname="Source: Vmware_34:0b:de (00:0c:29:34:0b:de)" size="6" pos="6" show="00:0c:29:34:0b:de" value="000c29340bde">
      <field name="eth.src_resolved" showname="Source (resolved): Vmware_34:0b:de" hide="yes" size="6" pos="6" show="Vmware_34:0b:de" value="000c29340bde"/>
      <field name="eth.addr" showname="Address: Vmware_34:0b:de (00:0c:29:34:0b:de)" size="6" pos="6" show="00:0c:29:34:0b:de" value="000c29340bde"/>
      <field name="eth.addr_resolved" showname="Address (resolved): Vmware_34:0b:de" hide="yes" size="6" pos="6" show="Vmware_34:0b:de" value="000c29340bde"/>
      <field name="eth.lg" showname=".... ..0. .... .... .... .... = LG bit: Globally unique address (factory default)" size="3" pos="6" show="0" value="0" unmaskedvalue="000c29"/>
      <field name="eth.ig" showname=".... ...0 .... .... .... .... = IG bit: Individual address (unicast)" size="3" pos="6" show="0" value="0" unmaskedvalue="000c29"/>
    </field>
    <field name="eth.type" showname="Type: IPv4 (0x0800)" size="2" pos="12" show="0x00000800" value="0800"/>
  </proto>
  <proto name="ip" showname="Internet Protocol Version 4, Src: 192.168.158.139, Dst: 174.137.42.77" size="20" pos="14">
    <field name="ip.version" showname="0100 .... = Version: 4" size="1" pos="14" show="4" value="4" unmaskedvalue="45"/>
    <field name="ip.hdr_len" showname=".... 0101 = Header Length: 20 bytes (5)" size="1" pos="14" show="20" value="45"/>
    <field name="ip.dsfield" showname="Differentiated Services Field: 0x00 (DSCP: CS0, ECN: Not-ECT)" size="1" pos="15" show="0x00000000" value="00">
      <field name="ip.dsfield.dscp" showname="0000 00.. = Differentiated Services Codepoint: Default (0)" size="1" pos="15" show="0" value="0" unmaskedvalue="00"/>
      <field name="ip.dsfield.ecn" showname=".... ..00 = Explicit Congestion Notification: Not ECN-Capable Transport (0)" size="1" pos="15" show="0" value="0" unmaskedvalue="00"/>
    </field>
    <field name="ip.len" showname="Total Length: 60" size="2" pos="16" show="60" value="003c"/>
    <field name="ip.id" showname="Identification: 0xd749 (55113)" size="2" pos="18" show="0x0000d749" value="d749"/>
    <field name="ip.flags" showname="Flags: 0x00" size="1" pos="20" show="0x00000000" value="00">
      <field name="ip.flags.rb" showname="0... .... = Reserved bit: Not set" size="1" pos="20" show="0" value="00"/>
      <field name="ip.flags.df" showname=".0.. .... = Don&#x27;t fragment: Not set" size="1" pos="20" show="0" value="00"/>
      <field name="ip.flags.mf" showname="..0. .... = More fragments: Not set" size="1" pos="20" show="0" value="00"/>
    </field>
    <field name="ip.frag_offset" showname="Fragment offset: 0" size="2" pos="20" show="0" value="0000"/>
    <field name="ip.ttl" showname="Time to live: 128" size="1" pos="22" show="128" value="80"/>
    <field name="ip.proto" showname="Protocol: ICMP (1)" size="1" pos="23" show="1" value="01"/>
    <field name="ip.checksum" showname="Header checksum: 0x2b6d [validation disabled]" size="2" pos="24" show="0x00002b6d" value="2b6d"/>
    <field name="ip.checksum.status" showname="Header checksum status: Unverified" size="0" pos="24" show="2"/>
    <field name="ip.src" showname="Source: 192.168.158.139" size="4" pos="26" show="192.168.158.139" value="c0a89e8b"/>
    <field name="ip.addr" showname="Source or Destination Address: 192.168.158.139" hide="yes" size="4" pos="26" show="192.168.158.139" value="c0a89e8b"/>
    <field name="ip.src_host" showname="Source Host: 192.168.158.139" hide="yes" size="4" pos="26" show="192.168.158.139" value="c0a89e8b"/>
    <field name="ip.host" showname="Source or Destination Host: 192.168.158.139" hide="yes" size="4" pos="26" show="192.168.158.139" value="c0a89e8b"/>
    <field name="ip.dst" showname="Destination: 174.137.42.77" size="4" pos="30" show="174.137.42.77" value="ae892a4d"/>
    <field name="ip.addr" showname="Source or Destination Address: 174.137.42.77" hide="yes" size="4" pos="30" show="174.137.42.77" value="ae892a4d"/>
    <field name="ip.dst_host" showname="Destination Host: 174.137.42.77" hide="yes" size="4" pos="30" show="174.137.42.77" value="ae892a4d"/>
    <field name="ip.host" showname="Source or Destination Host: 174.137.42.77" hide="yes" size="4" pos="30" show="174.137.42.77" value="ae892a4d"/>
    <field name="" show="Source GeoIP: Unknown" size="4" pos="26" value="c0a89e8b"/>
    <field name="" show="Destination GeoIP: Unknown" size="4" pos="30" value="ae892a4d"/>
  </proto>
  <proto name="fake-field-wrapper">
  <field name="data" value="0800285c020023006162636465666768696a6b6c6d6e6f7071727374757677616263646566676869">
    <field name="data.data" showname="Data: 0800285c020023006162636465666768696a6b6c6d6e6f70..." size="40" pos="34" show="08:00:28:5c:02:00:23:00:61:62:63:64:65:66:67:68:69:6a:6b:6c:6d:6e:6f:70:71:72:73:74:75:76:77:61:62:63:64:65:66:67:68:69" value="0800285c020023006162636465666768696a6b6c6d6e6f7071727374757677616263646566676869"/>
    <field name="data.len" showname="Length: 40" size="0" pos="34" show="40"/>
</field>
</proto>
</packet>


<packet>
  <proto name="geninfo" pos="0" showname="General information" size="74">
    <field name="num" pos="0" show="6" showname="Number" value="6" size="74"/>
    <field name="len" pos="0" show="74" showname="Frame Length" value="4a" size="74"/>
    <field name="caplen" pos="0" show="74" showname="Captured Length" value="4a" size="74"/>
    <field name="timestamp" pos="0" show="Jun 19, 2013 02:45:59.085428000 Mountain Daylight Time" showname="Captured Time" value="1371631559.085428000" size="74"/>
  </proto>
  <proto name="frame" showname="Frame 6: 74 bytes on wire (592 bits), 74 bytes captured (592 bits)" size="74" pos="0">
    <field name="frame.encap_type" showname="Encapsulation type: Ethernet (1)" size="0" pos="0" show="1"/>
    <field name="frame.time" showname="Arrival Time: Jun 19, 2013 02:45:59.085428000 Mountain Daylight Time" size="0" pos="0" show="Jun 19, 2013 02:45:59.085428000 Mountain Daylight Time"/>
    <field name="frame.offset_shift" showname="Time shift for this packet: 0.000000000 seconds" size="0" pos="0" show="0.000000000"/>
    <field name="frame.time_epoch" showname="Epoch Time: 1371631559.085428000 seconds" size="0" pos="0" show="1371631559.085428000"/>
    <field name="frame.time_delta" showname="Time delta from previous captured frame: 0.244260000 seconds" size="0" pos="0" show="0.244260000"/>
    <field name="frame.time_delta_displayed" showname="Time delta from previous displayed frame: 0.244260000 seconds" size="0" pos="0" show="0.244260000"/>
    <field name="frame.time_relative" showname="Time since reference or first frame: 2.246524000 seconds" size="0" pos="0" show="2.246524000"/>
    <field name="frame.number" showname="Frame Number: 6" size="0" pos="0" show="6"/>
    <field name="frame.len" showname="Frame Length: 74 bytes (592 bits)" size="0" pos="0" show="74"/>
    <field name="frame.cap_len" showname="Capture Length: 74 bytes (592 bits)" size="0" pos="0" show="74"/>
    <field name="frame.marked" showname="Frame is marked: False" size="0" pos="0" show="0"/>
    <field name="frame.ignored" showname="Frame is ignored: False" size="0" pos="0" show="0"/>
    <field name="frame.protocols" showname="Protocols in frame: eth:ethertype:ip:data" size="0" pos="0" show="eth:ethertype:ip:data"/>
  </proto>
  <proto name="eth" showname="Ethernet II, Src: Vmware_e0:14:49 (00:50:56:e0:14:49), Dst: Vmware_34:0b:de (00:0c:29:34:0b:de)" size="14" pos="0">
    <field name="eth.dst" showname="Destination: Vmware_34:0b:de (00:0c:29:34:0b:de)" size="6" pos="0" show="00:0c:29:34:0b:de" value="000c29340bde">
      <field name="eth.dst_resolved" showname="Destination (resolved): Vmware_34:0b:de" hide="yes" size="6" pos="0" show="Vmware_34:0b:de" value="000c29340bde"/>
      <field name="eth.addr" showname="Address: Vmware_34:0b:de (00:0c:29:34:0b:de)" size="6" pos="0" show="00:0c:29:34:0b:de" value="000c29340bde"/>
      <field name="eth.addr_resolved" showname="Address (resolved): Vmware_34:0b:de" hide="yes" size="6" pos="0" show="Vmware_34:0b:de" value="000c29340bde"/>
      <field name="eth.lg" showname=".... ..0. .... .... .... .... = LG bit: Globally unique address (factory default)" size="3" pos="0" show="0" value="0" unmaskedvalue="000c29"/>
      <field name="eth.ig" showname=".... ...0 .... .... .... .... = IG bit: Individual address (unicast)" size="3" pos="0" show="0" value="0" unmaskedvalue="000c29"/>
    </field>
    <field name="eth.src" showname="Source: Vmware_e0:14:49 (00:50:56:e0:14:49)" size="6" pos="6" show="00:50:56:e0:14:49" value="005056e01449">
      <field name="eth.src_resolved" showname="Source (resolved): Vmware_e0:14:49" hide="yes" size="6" pos="6" show="Vmware_e0:14:49" value="005056e01449"/>
      <field name="eth.addr" showname="Address: Vmware_e0:14:49 (00:50:56:e0:14:49)" size="6" pos="6" show="00:50:56:e0:14:49" value="005056e01449"/>
      <field name="eth.addr_resolved" showname="Address (resolved): Vmware_e0:14:49" hide="yes" size="6" pos="6" show="Vmware_e0:14:49" value="005056e01449"/>
      <field name="eth.lg" showname=".... ..0. .... .... .... .... = LG bit: Globally unique address (factory default)" size="3" pos="6" show="0" value="0" unmaskedvalue="005056"/>
      <field name="eth.ig" showname=".... ...0 .... .... .... .... = IG bit: Individual address (unicast)" size="3" pos="6" show="0" value="0" unmaskedvalue="005056"/>
    </field>
    <field name="eth.type" showname="Type: IPv4 (0x0800)" size="2" pos="12" show="0x00000800" value="0800"/>
  </proto>
  <proto name="ip" showname="Internet Protocol Version 4, Src: 174.137.42.77, Dst: 192.168.158.139" size="20" pos="14">
    <field name="ip.version" showname="0100 .... = Version: 4" size="1" pos="14" show="4" value="4" unmaskedvalue="45"/>
    <field name="ip.hdr_len" showname=".... 0101 = Header Length: 20 bytes (5)" size="1" pos="14" show="20" value="45"/>
    <field name="ip.dsfield" showname="Differentiated Services Field: 0x00 (DSCP: CS0, ECN: Not-ECT)" size="1" pos="15" show="0x00000000" value="00">
      <field name="ip.dsfield.dscp" showname="0000 00.. = Differentiated Services Codepoint: Default (0)" size="1" pos="15" show="0" value="0" unmaskedvalue="00"/>
      <field name="ip.dsfield.ecn" showname=".... ..00 = Explicit Congestion Notification: Not ECN-Capable Transport (0)" size="1" pos="15" show="0" value="0" unmaskedvalue="00"/>
    </field>
    <field name="ip.len" showname="Total Length: 60" size="2" pos="16" show="60" value="003c"/>
    <field name="ip.id" showname="Identification: 0x76f0 (30448)" size="2" pos="18" show="0x000076f0" value="76f0"/>
    <field name="ip.flags" showname="Flags: 0x00" size="1" pos="20" show="0x00000000" value="00">
      <field name="ip.flags.rb" showname="0... .... = Reserved bit: Not set" size="1" pos="20" show="0" value="00"/>
      <field name="ip.flags.df" showname=".0.. .... = Don&#x27;t fragment: Not set" size="1" pos="20" show="0" value="00"/>
      <field name="ip.flags.mf" showname="..0. .... = More fragments: Not set" size="1" pos="20" show="0" value="00"/>
    </field>
    <field name="ip.frag_offset" showname="Fragment offset: 0" size="2" pos="20" show="0" value="0000"/>
    <field name="ip.ttl" showname="Time to live: 128" size="1" pos="22" show="128" value="80"/>
    <field name="ip.proto" showname="Protocol: ICMP (1)" size="1" pos="23" show="1" value="01"/>
    <field name="ip.checksum" showname="Header checksum: 0x8bc6 [validation disabled]" size="2" pos="24" show="0x00008bc6" value="8bc6"/>
    <field name="ip.checksum.status" showname="Header checksum status: Unverified" size="0" pos="24" show="2"/>
    <field name="ip.src" showname="Source: 174.137.42.77" size="4" pos="26" show="174.137.42.77" value="ae892a4d"/>
    <field name="ip.addr" showname="Source or Destination Address: 174.137.42.77" hide="yes" size="4" pos="26" show="174.137.42.77" value="ae892a4d"/>
    <field name="ip.src_host" showname="Source Host: 174.137.42.77" hide="yes" size="4" pos="26" show="174.137.42.77" value="ae892a4d"/>
    <field name="ip.host" showname="Source or Destination Host: 174.137.42.77" hide="yes" size="4" pos="26" show="174.137.42.77" value="ae892a4d"/>
    <field name="ip.dst" showname="Destination: 192.168.158.139" size="4" pos="30" show="192.168.158.139" value="c0a89e8b"/>
    <field name="ip.addr" showname="Source or Destination Address: 192.168.158.139" hide="yes" size="4" pos="30" show="192.168.158.139" value="c0a89e8b"/>
    <field name="ip.dst_host" showname="Destination Host: 192.168.158.139" hide="yes" size="4" pos="30" show="192.168.158.139" value="c0a89e8b"/>
    <field name="ip.host" showname="Source or Destination Host: 192.168.158.139" hide="yes" size="4" pos="30" show="192.168.158.139" value="c0a89e8b"/>
    <field name="" show="Source GeoIP: Unknown" size="4" pos="26" value="ae892a4d"/>
    <field name="" show="Destination GeoIP: Unknown" size="4" pos="30" value="c0a89e8b"/>
  </proto>
  <proto name="fake-field-wrapper">
  <field name="data" value="0000305c020023006162636465666768696a6b6c6d6e6f7071727374757677616263646566676869">
    <field name="data.data" showname="Data: 0000305c020023006162636465666768696a6b6c6d6e6f70..." size="40" pos="34" show="00:00:30:5c:02:00:23:00:61:62:63:64:65:66:67:68:69:6a:6b:6c:6d:6e:6f:70:71:72:73:74:75:76:77:61:62:63:64:65:66:67:68:69" value="0000305c020023006162636465666768696a6b6c6d6e6f7071727374757677616263646566676869"/>
    <field name="data.len" showname="Length: 40" size="0" pos="34" show="40"/>
</field>
</proto>
</packet>


<packet>
  <proto name="geninfo" pos="0" showname="General information" size="74">
    <field name="num" pos="0" show="7" showname="Number" value="7" size="74"/>
    <field name="len" pos="0" show="74" showname="Frame Length" value="4a" size="74"/>
    <field name="caplen" pos="0" show="74" showname="Captured Length" value="4a" size="74"/>
    <field name="timestamp" pos="0" show="Jun 19, 2013 02:45:59.841775000 Mountain Daylight Time" showname="Captured Time" value="1371631559.841775000" size="74"/>
  </proto>
  <proto name="frame" showname="Frame 7: 74 bytes on wire (592 bits), 74 bytes captured (592 bits)" size="74" pos="0">
    <field name="frame.encap_type" showname="Encapsulation type: Ethernet (1)" size="0" pos="0" show="1"/>
    <field name="frame.time" showname="Arrival Time: Jun 19, 2013 02:45:59.841775000 Mountain Daylight Time" size="0" pos="0" show="Jun 19, 2013 02:45:59.841775000 Mountain Daylight Time"/>
    <field name="frame.offset_shift" showname="Time shift for this packet: 0.000000000 seconds" size="0" pos="0" show="0.000000000"/>
    <field name="frame.time_epoch" showname="Epoch Time: 1371631559.841775000 seconds" size="0" pos="0" show="1371631559.841775000"/>
    <field name="frame.time_delta" showname="Time delta from previous captured frame: 0.756347000 seconds" size="0" pos="0" show="0.756347000"/>
    <field name="frame.time_delta_displayed" showname="Time delta from previous displayed frame: 0.756347000 seconds" size="0" pos="0" show="0.756347000"/>
    <field name="frame.time_relative" showname="Time since reference or first frame: 3.002871000 seconds" size="0" pos="0" show="3.002871000"/>
    <field name="frame.number" showname="Frame Number: 7" size="0" pos="0" show="7"/>
    <field name="frame.len" showname="Frame Length: 74 bytes (592 bits)" size="0" pos="0" show="74"/>
    <field name="frame.cap_len" showname="Capture Length: 74 bytes (592 bits)" size="0" pos="0" show="74"/>
    <field name="frame.marked" showname="Frame is marked: False" size="0" pos="0" show="0"/>
    <field name="frame.ignored" showname="Frame is ignored: False" size="0" pos="0" show="0"/>
    <field name="frame.protocols" showname="Protocols in frame: eth:ethertype:ip:data" size="0" pos="0" show="eth:ethertype:ip:data"/>
  </proto>
  <proto name="eth" showname="Ethernet II, Src: Vmware_34:0b:de (00:0c:29:34:0b:de), Dst: Vmware_e0:14:49 (00:50:56:e0:14:49)" size="14" pos="0">
    <field name="eth.dst" showname="Destination: Vmware_e0:14:49 (00:50:56:e0:14:49)" size="6" pos="0" show="00:50:56:e0:14:49" value="005056e01449">
      <field name="eth.dst_resolved" showname="Destination (resolved): Vmware_e0:14:49" hide="yes" size="6" pos="0" show="Vmware_e0:14:49" value="005056e01449"/>
      <field name="eth.addr" showname="Address: Vmware_e0:14:49 (00:50:56:e0:14:49)" size="6" pos="0" show="00:50:56:e0:14:49" value="005056e01449"/>
      <field name="eth.addr_resolved" showname="Address (resolved): Vmware_e0:14:49" hide="yes" size="6" pos="0" show="Vmware_e0:14:49" value="005056e01449"/>
      <field name="eth.lg" showname=".... ..0. .... .... .... .... = LG bit: Globally unique address (factory default)" size="3" pos="0" show="0" value="0" unmaskedvalue="005056"/>
      <field name="eth.ig" showname=".... ...0 .... .... .... .... = IG bit: Individual address (unicast)" size="3" pos="0" show="0" value="0" unmaskedvalue="005056"/>
    </field>
    <field name="eth.src" showname="Source: Vmware_34:0b:de (00:0c:29:34:0b:de)" size="6" pos="6" show="00:0c:29:34:0b:de" value="000c29340bde">
      <field name="eth.src_resolved" showname="Source (resolved): Vmware_34:0b:de" hide="yes" size="6" pos="6" show="Vmware_34:0b:de" value="000c29340bde"/>
      <field name="eth.addr" showname="Address: Vmware_34:0b:de (00:0c:29:34:0b:de)" size="6" pos="6" show="00:0c:29:34:0b:de" value="000c29340bde"/>
      <field name="eth.addr_resolved" showname="Address (resolved): Vmware_34:0b:de" hide="yes" size="6" pos="6" show="Vmware_34:0b:de" value="000c29340bde"/>
      <field name="eth.lg" showname=".... ..0. .... .... .... .... = LG bit: Globally unique address (factory default)" size="3" pos="6" show="0" value="0" unmaskedvalue="000c29"/>
      <field name="eth.ig" showname=".... ...0 .... .... .... .... = IG bit: Individual address (unicast)" size="3" pos="6" show="0" value="0" unmaskedvalue="000c29"/>
    </field>
    <field name="eth.type" showname="Type: IPv4 (0x0800)" size="2" pos="12" show="0x00000800" value="0800"/>
  </proto>
  <proto name="ip" showname="Internet Protocol Version 4, Src: 192.168.158.139, Dst: 174.137.42.77" size="20" pos="14">
    <field name="ip.version" showname="0100 .... = Version: 4" size="1" pos="14" show="4" value="4" unmaskedvalue="45"/>
    <field name="ip.hdr_len" showname=".... 0101 = Header Length: 20 bytes (5)" size="1" pos="14" show="20" value="45"/>
    <field name="ip.dsfield" showname="Differentiated Services Field: 0x00 (DSCP: CS0, ECN: Not-ECT)" size="1" pos="15" show="0x00000000" value="00">
      <field name="ip.dsfield.dscp" showname="0000 00.. = Differentiated Services Codepoint: Default (0)" size="1" pos="15" show="0" value="0" unmaskedvalue="00"/>
      <field name="ip.dsfield.ecn" showname=".... ..00 = Explicit Congestion Notification: Not ECN-Capable Transport (0)" size="1" pos="15" show="0" value="0" unmaskedvalue="00"/>
    </field>
    <field name="ip.len" showname="Total Length: 60" size="2" pos="16" show="60" value="003c"/>
    <field name="ip.id" showname="Identification: 0xd74e (55118)" size="2" pos="18" show="0x0000d74e" value="d74e"/>
    <field name="ip.flags" showname="Flags: 0x00" size="1" pos="20" show="0x00000000" value="00">
      <field name="ip.flags.rb" showname="0... .... = Reserved bit: Not set" size="1" pos="20" show="0" value="00"/>
      <field name="ip.flags.df" showname=".0.. .... = Don&#x27;t fragment: Not set" size="1" pos="20" show="0" value="00"/>
      <field name="ip.flags.mf" showname="..0. .... = More fragments: Not set" size="1" pos="20" show="0" value="00"/>
    </field>
    <field name="ip.frag_offset" showname="Fragment offset: 0" size="2" pos="20" show="0" value="0000"/>
    <field name="ip.ttl" showname="Time to live: 128" size="1" pos="22" show="128" value="80"/>
    <field name="ip.proto" showname="Protocol: ICMP (1)" size="1" pos="23" show="1" value="01"/>
    <field name="ip.checksum" showname="Header checksum: 0x2b68 [validation disabled]" size="2" pos="24" show="0x00002b68" value="2b68"/>
    <field name="ip.checksum.status" showname="Header checksum status: Unverified" size="0" pos="24" show="2"/>
    <field name="ip.src" showname="Source: 192.168.158.139" size="4" pos="26" show="192.168.158.139" value="c0a89e8b"/>
    <field name="ip.addr" showname="Source or Destination Address: 192.168.158.139" hide="yes" size="4" pos="26" show="192.168.158.139" value="c0a89e8b"/>
    <field name="ip.src_host" showname="Source Host: 192.168.158.139" hide="yes" size="4" pos="26" show="192.168.158.139" value="c0a89e8b"/>
    <field name="ip.host" showname="Source or Destination Host: 192.168.158.139" hide="yes" size="4" pos="26" show="192.168.158.139" value="c0a89e8b"/>
    <field name="ip.dst" showname="Destination: 174.137.42.77" size="4" pos="30" show="174.137.42.77" value="ae892a4d"/>
    <field name="ip.addr" showname="Source or Destination Address: 174.137.42.77" hide="yes" size="4" pos="30" show="174.137.42.77" value="ae892a4d"/>
    <field name="ip.dst_host" showname="Destination Host: 174.137.42.77" hide="yes" size="4" pos="30" show="174.137.42.77" value="ae892a4d"/>
    <field name="ip.host" showname="Source or Destination Host: 174.137.42.77" hide="yes" size="4" pos="30" show="174.137.42.77" value="ae892a4d"/>
    <field name="" show="Source GeoIP: Unknown" size="4" pos="26" value="c0a89e8b"/>
    <field name="" show="Destination GeoIP: Unknown" size="4" pos="30" value="ae892a4d"/>
  </proto>
  <proto name="fake-field-wrapper">
  <field name="data" value="0800275c020024006162636465666768696a6b6c6d6e6f7071727374757677616263646566676869">
    <field name="data.data" showname="Data: 0800275c020024006162636465666768696a6b6c6d6e6f70..." size="40" pos="34" show="08:00:27:5c:02:00:24:00:61:62:63:64:65:66:67:68:69:6a:6b:6c:6d:6e:6f:70:71:72:73:74:75:76:77:61:62:63:64:65:66:67:68:69" value="0800275c020024006162636465666768696a6b6c6d6e6f7071727374757677616263646566676869"/>
    <field name="data.len" showname="Length: 40" size="0" pos="34" show="40"/>
</field>
</proto>
</packet>


<packet>
  <proto name="geninfo" pos="0" showname="General information" size="74">
    <field name="num" pos="0" show="8" showname="Number" value="8" size="74"/>
    <field name="len" pos="0" show="74" showname="Frame Length" value="4a" size="74"/>
    <field name="caplen" pos="0" show="74" showname="Captured Length" value="4a" size="74"/>
    <field name="timestamp" pos="0" show="Jun 19, 2013 02:46:00.042354000 Mountain Daylight Time" showname="Captured Time" value="1371631560.042354000" size="74"/>
  </proto>
  <proto name="frame" showname="Frame 8: 74 bytes on wire (592 bits), 74 bytes captured (592 bits)" size="74" pos="0">
    <field name="frame.encap_type" showname="Encapsulation type: Ethernet (1)" size="0" pos="0" show="1"/>
    <field name="frame.time" showname="Arrival Time: Jun 19, 2013 02:46:00.042354000 Mountain Daylight Time" size="0" pos="0" show="Jun 19, 2013 02:46:00.042354000 Mountain Daylight Time"/>
    <field name="frame.offset_shift" showname="Time shift for this packet: 0.000000000 seconds" size="0" pos="0" show="0.000000000"/>
    <field name="frame.time_epoch" showname="Epoch Time: 1371631560.042354000 seconds" size="0" pos="0" show="1371631560.042354000"/>
    <field name="frame.time_delta" showname="Time delta from previous captured frame: 0.200579000 seconds" size="0" pos="0" show="0.200579000"/>
    <field name="frame.time_delta_displayed" showname="Time delta from previous displayed frame: 0.200579000 seconds" size="0" pos="0" show="0.200579000"/>
    <field name="frame.time_relative" showname="Time since reference or first frame: 3.203450000 seconds" size="0" pos="0" show="3.203450000"/>
    <field name="frame.number" showname="Frame Number: 8" size="0" pos="0" show="8"/>
    <field name="frame.len" showname="Frame Length: 74 bytes (592 bits)" size="0" pos="0" show="74"/>
    <field name="frame.cap_len" showname="Capture Length: 74 bytes (592 bits)" size="0" pos="0" show="74"/>
    <field name="frame.marked" showname="Frame is marked: False" size="0" pos="0" show="0"/>
    <field name="frame.ignored" showname="Frame is ignored: False" size="0" pos="0" show="0"/>
    <field name="frame.protocols" showname="Protocols in frame: eth:ethertype:ip:data" size="0" pos="0" show="eth:ethertype:ip:data"/>
  </proto>
  <proto name="eth" showname="Ethernet II, Src: Vmware_e0:14:49 (00:50:56:e0:14:49), Dst: Vmware_34:0b:de (00:0c:29:34:0b:de)" size="14" pos="0">
    <field name="eth.dst" showname="Destination: Vmware_34:0b:de (00:0c:29:34:0b:de)" size="6" pos="0" show="00:0c:29:34:0b:de" value="000c29340bde">
      <field name="eth.dst_resolved" showname="Destination (resolved): Vmware_34:0b:de" hide="yes" size="6" pos="0" show="Vmware_34:0b:de" value="000c29340bde"/>
      <field name="eth.addr" showname="Address: Vmware_34:0b:de (00:0c:29:34:0b:de)" size="6" pos="0" show="00:0c:29:34:0b:de" value="000c29340bde"/>
      <field name="eth.addr_resolved" showname="Address (resolved): Vmware_34:0b:de" hide="yes" size="6" pos="0" show="Vmware_34:0b:de" value="000c29340bde"/>
      <field name="eth.lg" showname=".... ..0. .... .... .... .... = LG bit: Globally unique address (factory default)" size="3" pos="0" show="0" value="0" unmaskedvalue="000c29"/>
      <field name="eth.ig" showname=".... ...0 .... .... .... .... = IG bit: Individual address (unicast)" size="3" pos="0" show="0" value="0" unmaskedvalue="000c29"/>
    </field>
    <field name="eth.src" showname="Source: Vmware_e0:14:49 (00:50:56:e0:14:49)" size="6" pos="6" show="00:50:56:e0:14:49" value="005056e01449">
      <field name="eth.src_resolved" showname="Source (resolved): Vmware_e0:14:49" hide="yes" size="6" pos="6" show="Vmware_e0:14:49" value="005056e01449"/>
      <field name="eth.addr" showname="Address: Vmware_e0:14:49 (00:50:56:e0:14:49)" size="6" pos="6" show="00:50:56:e0:14:49" value="005056e01449"/>
      <field name="eth.addr_resolved" showname="Address (resolved): Vmware_e0:14:49" hide="yes" size="6" pos="6" show="Vmware_e0:14:49" value="005056e01449"/>
      <field name="eth.lg" showname=".... ..0. .... .... .... .... = LG bit: Globally unique address (factory default)" size="3" pos="6" show="0" value="0" unmaskedvalue="005056"/>
      <field name="eth.ig" showname=".... ...0 .... .... .... .... = IG bit: Individual address (unicast)" size="3" pos="6" show="0" value="0" unmaskedvalue="005056"/>
    </field>
    <field name="eth.type" showname="Type: IPv4 (0x0800)" size="2" pos="12" show="0x00000800" value="0800"/>
  </proto>
  <proto name="ip" showname="Internet Protocol Version 4, Src: 174.137.42.77, Dst: 192.168.158.139" size="20" pos="14">
    <field name="ip.version" showname="0100 .... = Version: 4" size="1" pos="14" show="4" value="4" unmaskedvalue="45"/>
    <field name="ip.hdr_len" showname=".... 0101 = Header Length: 20 bytes (5)" size="1" pos="14" show="20" value="45"/>
    <field name="ip.dsfield" showname="Differentiated Services Field: 0x00 (DSCP: CS0, ECN: Not-ECT)" size="1" pos="15" show="0x00000000" value="00">
      <field name="ip.dsfield.dscp" showname="0000 00.. = Differentiated Services Codepoint: Default (0)" size="1" pos="15" show="0" value="0" unmaskedvalue="00"/>
      <field name="ip.dsfield.ecn" showname=".... ..00 = Explicit Congestion Notification: Not ECN-Capable Transport (0)" size="1" pos="15" show="0" value="0" unmaskedvalue="00"/>
    </field>
    <field name="ip.len" showname="Total Length: 60" size="2" pos="16" show="60" value="003c"/>
    <field name="ip.id" showname="Identification: 0x76f5 (30453)" size="2" pos="18" show="0x000076f5" value="76f5"/>
    <field name="ip.flags" showname="Flags: 0x00" size="1" pos="20" show="0x00000000" value="00">
      <field name="ip.flags.rb" showname="0... .... = Reserved bit: Not set" size="1" pos="20" show="0" value="00"/>
      <field name="ip.flags.df" showname=".0.. .... = Don&#x27;t fragment: Not set" size="1" pos="20" show="0" value="00"/>
      <field name="ip.flags.mf" showname="..0. .... = More fragments: Not set" size="1" pos="20" show="0" value="00"/>
    </field>
    <field name="ip.frag_offset" showname="Fragment offset: 0" size="2" pos="20" show="0" value="0000"/>
    <field name="ip.ttl" showname="Time to live: 128" size="1" pos="22" show="128" value="80"/>
    <field name="ip.proto" showname="Protocol: ICMP (1)" size="1" pos="23" show="1" value="01"/>
    <field name="ip.checksum" showname="Header checksum: 0x8bc1 [validation disabled]" size="2" pos="24" show="0x00008bc1" value="8bc1"/>
    <field name="ip.checksum.status" showname="Header checksum status: Unverified" size="0" pos="24" show="2"/>
    <field name="ip.src" showname="Source: 174.137.42.77" size="4" pos="26" show="174.137.42.77" value="ae892a4d"/>
    <field name="ip.addr" showname="Source or Destination Address: 174.137.42.77" hide="yes" size="4" pos="26" show="174.137.42.77" value="ae892a4d"/>
    <field name="ip.src_host" showname="Source Host: 174.137.42.77" hide="yes" size="4" pos="26" show="174.137.42.77" value="ae892a4d"/>
    <field name="ip.host" showname="Source or Destination Host: 174.137.42.77" hide="yes" size="4" pos="26" show="174.137.42.77" value="ae892a4d"/>
    <field name="ip.dst" showname="Destination: 192.168.158.139" size="4" pos="30" show="192.168.158.139" value="c0a89e8b"/>
    <field name="ip.addr" showname="Source or Destination Address: 192.168.158.139" hide="yes" size="4" pos="30" show="192.168.158.139" value="c0a89e8b"/>
    <field name="ip.dst_host" showname="Destination Host: 192.168.158.139" hide="yes" size="4" pos="30" show="192.168.158.139" value="c0a89e8b"/>
    <field name="ip.host" showname="Source or Destination Host: 192.168.158.139" hide="yes" size="4" pos="30" show="192.168.158.139" value="c0a89e8b"/>
    <field name="" show="Source GeoIP: Unknown" size="4" pos="26" value="ae892a4d"/>
    <field name="" show="Destination GeoIP: Unknown" size="4" pos="30" value="c0a89e8b"/>
  </proto>
  <proto name="fake-field-wrapper">
  <field name="data" value="00002f5c020024006162636465666768696a6b6c6d6e6f7071727374757677616263646566676869">
    <field name="data.data" showname="Data: 00002f5c020024006162636465666768696a6b6c6d6e6f70..." size="40" pos="34" show="00:00:2f:5c:02:00:24:00:61:62:63:64:65:66:67:68:69:6a:6b:6c:6d:6e:6f:70:71:72:73:74:75:76:77:61:62:63:64:65:66:67:68:69" value="00002f5c020024006162636465666768696a6b6c6d6e6f7071727374757677616263646566676869"/>
    <field name="data.len" showname="Length: 40" size="0" pos="34" show="40"/>
</field>
</proto>
</packet>


</pdml>
